target datalayout = "e-m:e-p270:32:32-p271:32:32-p272:64:64-i64:64-i128:128-f80:128-n8:16:32:64-S128"
target triple = "x86_64-pc-linux-gnu"

; Function Attrs: nounwind uwtable
define i32 @lv_anim_speed_to_time(i32 noundef %0, i32 noundef %1, i32 noundef %2) #0 {
  %4 = alloca i32, align 4
  %5 = alloca i32, align 4
  %6 = alloca i32, align 4
  %7 = alloca i32, align 4
  %8 = alloca i32, align 4
  store i32 %0, ptr %4, align 4, !tbaa !26
  store i32 %1, ptr %5, align 4, !tbaa !26
  store i32 %2, ptr %6, align 4, !tbaa !26
  call void @llvm.lifetime.start.p0(i64 4, ptr %7) #4
  %9 = load i32, ptr %5, align 4, !tbaa !26
  %10 = load i32, ptr %6, align 4, !tbaa !26
  %11 = sub nsw i32 %9, %10
  %12 = icmp sgt i32 %11, 0
  br i1 %12, label %13, label %17

13:                                               ; preds = %3
  %14 = load i32, ptr %5, align 4, !tbaa !26
  %15 = load i32, ptr %6, align 4, !tbaa !26
  %16 = sub nsw i32 %14, %15
  br label %22

17:                                               ; preds = %3
  %18 = load i32, ptr %5, align 4, !tbaa !26
  %19 = load i32, ptr %6, align 4, !tbaa !26
  %20 = sub nsw i32 %18, %19
  %21 = sub nsw i32 0, %20
  br label %22

22:                                               ; preds = %17, %13
  %23 = phi i32 [ %16, %13 ], [ %21, %17 ]
  store i32 %23, ptr %7, align 4, !tbaa !26
  call void @llvm.lifetime.start.p0(i64 4, ptr %8) #4
  %24 = load i32, ptr %7, align 4, !tbaa !26
  %25 = mul i32 %24, 1000
  %26 = load i32, ptr %4, align 4, !tbaa !26
  %27 = udiv i32 %25, %26
  store i32 %27, ptr %8, align 4, !tbaa !26
  %28 = load i32, ptr %8, align 4, !tbaa !26
  %29 = icmp eq i32 %28, 0
  br i1 %29, label %30, label %31

30:                                               ; preds = %22
  br label %33

31:                                               ; preds = %22
  %32 = load i32, ptr %8, align 4, !tbaa !26
  br label %33

33:                                               ; preds = %31, %30
  %34 = phi i32 [ 1, %30 ], [ %32, %31 ]
  store i32 %34, ptr %8, align 4, !tbaa !26
  %35 = load i32, ptr %8, align 4, !tbaa !26
  call void @llvm.lifetime.end.p0(i64 4, ptr %8) #4
  call void @llvm.lifetime.end.p0(i64 4, ptr %7) #4
  ret i32 %35
}