; Function Attrs: mustprogress nofree norecurse nosync nounwind willreturn memory(none) uwtable
define i32 @lv_anim_speed_to_time(i32 noundef %0, i32 noundef %1, i32 noundef %2) local_unnamed_addr #5 {
  %4 = sub nsw i32 %1, %2
  %5 = tail call i32 @llvm.abs.i32(i32 %4, i1 true)
  %6 = mul i32 %5, 1000
  %7 = udiv i32 %6, %0
  %8 = icmp ugt i32 %0, %6
  %9 = select i1 %8, i32 1, i32 %7
  ret i32 %9
}